target datalayout = "e-m:e-p270:32:32-p271:32:32-p272:64:64-i64:64-i128:128-f80:128-n8:16:32:64-S128"
target triple = "x86_64-pc-linux-gnu"

%struct.cmdinfo = type { ptr, ptr, ptr, i32, i32, i32, i32, ptr, ptr, ptr, i64 }

@.str.2 = private unnamed_addr constant [13 x i8] c"%s %s -- %s\0A\00", align 1

; Function Attrs: nounwind sspstrong uwtable
define dso_local void @qemuio_command_usage(ptr noundef %0) #0 {
  %2 = alloca ptr, align 8
  store ptr %0, ptr %2, align 8
  %3 = load ptr, ptr %2, align 8
  %4 = getelementptr inbounds nuw %struct.cmdinfo, ptr %3, i32 0, i32 0
  %5 = load ptr, ptr %4, align 8
  %6 = load ptr, ptr %2, align 8
  %7 = getelementptr inbounds nuw %struct.cmdinfo, ptr %6, i32 0, i32 7
  %8 = load ptr, ptr %7, align 8
  %9 = load ptr, ptr %2, align 8
  %10 = getelementptr inbounds nuw %struct.cmdinfo, ptr %9, i32 0, i32 8
  %11 = load ptr, ptr %10, align 8
  %12 = call i32 (i32, ptr, ...) @__printf_chk(i32 noundef 1, ptr noundef @.str.2, ptr noundef %5, ptr noundef %8, ptr noundef %11)
  ret void
}